; Function Attrs: nounwind uwtable
define void @Zyx_SetConstVar(ptr noundef readonly captures(none) %0, i32 noundef %1, i32 noundef %2) local_unnamed_addr #2 {
  %4 = alloca i32, align 4
  %.not = icmp eq i32 %2, 0
  %5 = zext i1 %.not to i32
  %6 = shl nsw i32 %1, 1
  %7 = or disjoint i32 %6, %5
  store i32 %7, ptr %4, align 4
  %8 = getelementptr inbounds nuw i8, ptr %0, i64 8808
  %9 = load ptr, ptr %8, align 8
  %10 = call i32 @bmcg_sat_solver_addclause(ptr noundef %9, ptr noundef nonnull %4, i32 noundef 1) #22
  %11 = getelementptr inbounds nuw i8, ptr %0, i64 48
  %12 = load ptr, ptr %11, align 8
  %13 = getelementptr i8, ptr %12, i64 8
  %.val = load ptr, ptr %13, align 8
  %14 = sext i32 %1 to i64
  %15 = getelementptr inbounds i32, ptr %.val, i64 %14
  store i32 %2, ptr %15, align 4
  ret void
}